target datalayout = "e-m:e-p270:32:32-p271:32:32-p272:64:64-i64:64-i128:128-f80:128-n8:16:32:64-S128"
target triple = "x86_64-unknown-linux-gnu"

%struct.QEnumLookup = type { ptr, ptr, i32 }

@.str = private unnamed_addr constant [41 x i8] c"{ 'error': { 'class': %s, 'desc': %s } }\00", align 1
@QapiErrorClass_lookup = external constant %struct.QEnumLookup, align 8

; Function Attrs: nounwind sspstrong uwtable
define dso_local ptr @qmp_error_response(ptr noundef %err) #0 {
entry:
  %err.addr = alloca ptr, align 8
  %rsp = alloca ptr, align 8
  store ptr %err, ptr %err.addr, align 8
  %0 = load ptr, ptr %err.addr, align 8
  %call = call i32 @error_get_class(ptr noundef %0)
  %call1 = call ptr @qapi_enum_lookup(ptr noundef @QapiErrorClass_lookup, i32 noundef %call)
  %1 = load ptr, ptr %err.addr, align 8
  %call2 = call ptr @error_get_pretty(ptr noundef %1)
  %call3 = call ptr (ptr, ...) @qdict_from_jsonf_nofail(ptr noundef @.str, ptr noundef %call1, ptr noundef %call2)
  store ptr %call3, ptr %rsp, align 8
  %2 = load ptr, ptr %err.addr, align 8
  call void @error_free(ptr noundef %2)
  %3 = load ptr, ptr %rsp, align 8
  ret ptr %3
}