; Function Attrs: nounwind sspstrong uwtable
define dso_local ptr @qmp_error_response(ptr noundef %err) local_unnamed_addr #0 {
entry:
  %call = tail call i32 @error_get_class(ptr noundef %err) #5
  %call1 = tail call ptr @qapi_enum_lookup(ptr noundef nonnull @QapiErrorClass_lookup, i32 noundef %call) #5
  %call2 = tail call ptr @error_get_pretty(ptr noundef %err) #5
  %call3 = tail call ptr (ptr, ...) @qdict_from_jsonf_nofail(ptr noundef nonnull @.str, ptr noundef %call1, ptr noundef %call2) #5
  tail call void @error_free(ptr noundef %err) #5
  ret ptr %call3
}